target datalayout = "e-m:e-p270:32:32-p271:32:32-p272:64:64-i64:64-i128:128-f80:128-n8:16:32:64-S128"
target triple = "x86_64-pc-linux-gnu"

%struct.darktable_t = type { %struct.dt_codepath_t, i32, i32, ptr, ptr, ptr, ptr, ptr, ptr, ptr, ptr, ptr, ptr, ptr, ptr, ptr, ptr, ptr, ptr, ptr, ptr, ptr, ptr, ptr, ptr, ptr, ptr, ptr, ptr, ptr, [64 x %struct.dt_pthread_mutex_t], %struct.dt_pthread_mutex_t, %struct.dt_pthread_mutex_t, %struct.dt_pthread_mutex_t, %struct.dt_pthread_mutex_t, %struct.dt_pthread_mutex_t, ptr, ptr, ptr, ptr, ptr, ptr, ptr, ptr, ptr, ptr, ptr, ptr, ptr, %struct.dt_lua_state_t, ptr, double, ptr, i32, [47 x i32], i32, i32, ptr, ptr, %struct.dt_sys_resources_t, %struct.dt_backthumb_t, %struct.dt_gimp_t }
%struct.dt_codepath_t = type { i8, [3 x i8] }
%struct.dt_pthread_mutex_t = type { %union.pthread_mutex_t }
%union.pthread_mutex_t = type { %struct.__pthread_mutex_s }
%struct.__pthread_mutex_s = type { i32, i32, i32, i32, i32, i16, i16, %struct.__pthread_internal_list }
%struct.__pthread_internal_list = type { ptr, ptr }
%struct.dt_lua_state_t = type { i32 }
%struct.dt_sys_resources_t = type { i64, i64, ptr, ptr, i32 }
%struct.dt_backthumb_t = type { double, double, i32, i32, i32, i32 }
%struct.dt_gimp_t = type { i32, ptr, ptr, i32, i32 }

@darktable = external global %struct.darktable_t, align 8
@.str.192 = private unnamed_addr constant [5 x i8] c"file\00", align 1

; Function Attrs: inlinehint nounwind uwtable
define internal i32 @dt_check_gimpmode_ok(ptr noundef %0) #4 {
  %2 = alloca ptr, align 8
  store ptr %0, ptr %2, align 8, !tbaa !11
  %3 = load ptr, ptr getelementptr inbounds nuw (%struct.dt_gimp_t, ptr getelementptr inbounds nuw (%struct.darktable_t, ptr @darktable, i32 0, i32 61), i32 0, i32 1), align 8, !tbaa !368
  %4 = icmp ne ptr %3, null
  br i1 %4, label %5, label %16

5:                                                ; preds = %1
  %6 = load i32, ptr getelementptr inbounds nuw (%struct.dt_gimp_t, ptr getelementptr inbounds nuw (%struct.darktable_t, ptr @darktable, i32 0, i32 61), i32 0, i32 4), align 4, !tbaa !179
  %7 = icmp ne i32 %6, 0
  br i1 %7, label %13, label %8

8:                                                ; preds = %5
  %9 = load ptr, ptr getelementptr inbounds nuw (%struct.dt_gimp_t, ptr getelementptr inbounds nuw (%struct.darktable_t, ptr @darktable, i32 0, i32 61), i32 0, i32 1), align 8, !tbaa !368
  %10 = load ptr, ptr %2, align 8, !tbaa !11
  %11 = call i32 @strcmp(ptr noundef %9, ptr noundef %10) #18
  %12 = icmp eq i32 %11, 0
  br label %13

13:                                               ; preds = %8, %5
  %14 = phi i1 [ false, %5 ], [ %12, %8 ]
  %15 = zext i1 %14 to i32
  br label %17

16:                                               ; preds = %1
  br label %17

17:                                               ; preds = %16, %13
  %18 = phi i32 [ %15, %13 ], [ 0, %16 ]
  ret i32 %18
}

; Function Attrs: nounwind uwtable
define internal i32 @_gui_quit_callback(ptr noundef %0, ptr noundef %1, ptr noundef %2) #0 {
  %4 = alloca ptr, align 8
  %5 = alloca ptr, align 8
  %6 = alloca ptr, align 8
  %7 = alloca i32, align 4
  store ptr %0, ptr %4, align 8, !tbaa !6
  store ptr %1, ptr %5, align 8, !tbaa !175
  store ptr %2, ptr %6, align 8, !tbaa !99
  call void @llvm.lifetime.start.p0(i64 4, ptr %7) #15
  %8 = call i32 @dt_view_get_current()
  store i32 %8, ptr %7, align 4, !tbaa !17
  %9 = load i32, ptr %7, align 4, !tbaa !17
  %10 = icmp eq i32 %9, 1
  br i1 %10, label %11, label %17

11:                                               ; preds = %3
  %12 = load ptr, ptr getelementptr inbounds nuw (%struct.darktable_t, ptr @darktable, i32 0, i32 11), align 8, !tbaa !167
  %13 = call i32 @dt_view_lighttable_preview_state(ptr noundef %12)
  %14 = icmp ne i32 %13, 0
  br i1 %14, label %15, label %17

15:                                               ; preds = %11
  %16 = load ptr, ptr getelementptr inbounds nuw (%struct.darktable_t, ptr @darktable, i32 0, i32 11), align 8, !tbaa !167
  call void @dt_view_lighttable_set_preview_state(ptr noundef %16, i32 noundef 0, i32 noundef 0, i32 noundef 0)
  br label %34

17:                                               ; preds = %11, %3
  %18 = load i32, ptr %7, align 4, !tbaa !17
  %19 = icmp eq i32 %18, 2
  br i1 %19, label %20, label %22

20:                                               ; preds = %17
  %21 = load ptr, ptr getelementptr inbounds nuw (%struct.darktable_t, ptr @darktable, i32 0, i32 9), align 8, !tbaa !177
  call void @dt_dev_write_history(ptr noundef %21)
  br label %22

22:                                               ; preds = %20, %17
  %23 = call i32 @dt_check_gimpmode_ok(ptr noundef @.str.192)
  %24 = icmp ne i32 %23, 0
  br i1 %24, label %25, label %33

25:                                               ; preds = %22
  %26 = load i32, ptr getelementptr inbounds nuw (%struct.dt_gimp_t, ptr getelementptr inbounds nuw (%struct.darktable_t, ptr @darktable, i32 0, i32 61), i32 0, i32 3), align 8, !tbaa !178
  %27 = call i32 @dt_export_gimp_file(i32 noundef %26)
  %28 = icmp ne i32 %27, 0
  %29 = xor i1 %28, true
  %30 = zext i1 %29 to i32
  store i32 %30, ptr getelementptr inbounds nuw (%struct.dt_gimp_t, ptr getelementptr inbounds nuw (%struct.darktable_t, ptr @darktable, i32 0, i32 61), i32 0, i32 4), align 4, !tbaa !179
  %31 = load i32, ptr getelementptr inbounds nuw (%struct.dt_gimp_t, ptr getelementptr inbounds nuw (%struct.darktable_t, ptr @darktable, i32 0, i32 61), i32 0, i32 3), align 8, !tbaa !178
  %32 = call i32 @dt_image_write_sidecar_file(i32 noundef %31)
  br label %33

33:                                               ; preds = %25, %22
  call void (...) @dt_control_quit()
  br label %34

34:                                               ; preds = %33, %15
  call void @llvm.lifetime.end.p0(i64 4, ptr %7) #15
  ret i32 1
}