; Function Attrs: nounwind uwtable
define internal noundef i32 @_gui_quit_callback(ptr readnone captures(none) %0, ptr readnone captures(none) %1, ptr readnone captures(none) %2) #0 {
  %4 = tail call i32 @dt_view_get_current() #18
  switch i32 %4, label %12 [
    i32 1, label %5
    i32 2, label %10
  ]

5:                                                ; preds = %3
  %6 = load ptr, ptr getelementptr inbounds nuw (i8, ptr @darktable, i64 80), align 8, !tbaa !144
  %7 = tail call i32 @dt_view_lighttable_preview_state(ptr noundef %6) #18
  %.not = icmp eq i32 %7, 0
  br i1 %.not, label %12, label %8

8:                                                ; preds = %5
  %9 = load ptr, ptr getelementptr inbounds nuw (i8, ptr @darktable, i64 80), align 8, !tbaa !144
  tail call void @dt_view_lighttable_set_preview_state(ptr noundef %9, i32 noundef 0, i32 noundef 0, i32 noundef 0) #18
  br label %22

10:                                               ; preds = %3
  %11 = load ptr, ptr getelementptr inbounds nuw (i8, ptr @darktable, i64 64), align 8, !tbaa !150
  tail call void @dt_dev_write_history(ptr noundef %11) #18
  br label %12

12:                                               ; preds = %5, %3, %10
  %13 = load ptr, ptr getelementptr inbounds nuw (i8, ptr @darktable, i64 3424), align 8, !tbaa !151
  %.not.i = icmp ne ptr %13, null
  %14 = load i32, ptr getelementptr inbounds nuw (i8, ptr @darktable, i64 3444), align 4
  %.not1.i = icmp eq i32 %14, 0
  %or.cond.i = select i1 %.not.i, i1 %.not1.i, i1 false
  br i1 %or.cond.i, label %dt_check_gimpmode_ok.exit, label %dt_check_gimpmode_ok.exit.thread

dt_check_gimpmode_ok.exit:                        ; preds = %12
  %15 = tail call i32 @strcmp(ptr noundef nonnull dereferenceable(1) %13, ptr noundef nonnull dereferenceable(5) @.str.192) #20
  %.not5 = icmp eq i32 %15, 0
  br i1 %.not5, label %16, label %dt_check_gimpmode_ok.exit.thread

16:                                               ; preds = %dt_check_gimpmode_ok.exit
  %17 = load i32, ptr getelementptr inbounds nuw (i8, ptr @darktable, i64 3440), align 8, !tbaa !152
  %18 = tail call i32 @dt_export_gimp_file(i32 noundef %17) #18
  %.not3 = icmp eq i32 %18, 0
  %19 = zext i1 %.not3 to i32
  store i32 %19, ptr getelementptr inbounds nuw (i8, ptr @darktable, i64 3444), align 4, !tbaa !153
  %20 = load i32, ptr getelementptr inbounds nuw (i8, ptr @darktable, i64 3440), align 8, !tbaa !152
  %21 = tail call i32 @dt_image_write_sidecar_file(i32 noundef %20) #18
  br label %dt_check_gimpmode_ok.exit.thread

dt_check_gimpmode_ok.exit.thread:                 ; preds = %12, %16, %dt_check_gimpmode_ok.exit
  tail call void (...) @dt_control_quit() #18
  br label %22

22:                                               ; preds = %dt_check_gimpmode_ok.exit.thread, %8
  ret i32 1
}